target datalayout = "e-m:e-p270:32:32-p271:32:32-p272:64:64-i64:64-i128:128-f80:128-n8:16:32:64-S128"
target triple = "x86_64-pc-linux-gnu"

%struct.rb_transcoder = type { ptr, ptr, i32, ptr, i32, ptr, i32, i32, i32, i32, i32, i32, i64, ptr, ptr, ptr, ptr, ptr, ptr, ptr, ptr, ptr, ptr }
%struct.transcoder_entry_t = type { ptr, ptr, ptr, ptr }
%struct.rb_econv_t = type { i32, i32, ptr, ptr, ptr, i64, ptr, ptr, ptr, ptr, ptr, ptr, i32, i32, i32, i32, ptr, %struct.anon, ptr, ptr }
%struct.anon = type { i32, ptr, ptr, ptr, ptr, i64, i64 }
%struct.rb_econv_elem_t = type { ptr, ptr, ptr, ptr, ptr, i32 }
%struct.rb_transcoding = type { ptr, i32, i32, i32, i64, i8, i32, i64, i64, %union.anon, i64, i64, %union.anon.0, %union.rb_transcoding_state_t }
%union.anon = type { ptr }
%union.anon.0 = type { ptr }
%union.rb_transcoding_state_t = type { ptr }

@transcoder_table = internal global ptr null, align 8
@.str.2 = private unnamed_addr constant [1 x i8] zeroinitializer, align 1
@.str.4 = private unnamed_addr constant [18 x i8] c"universal_newline\00", align 1
@.str.5 = private unnamed_addr constant [13 x i8] c"crlf_newline\00", align 1
@.str.6 = private unnamed_addr constant [11 x i8] c"cr_newline\00", align 1
@.str.7 = private unnamed_addr constant [11 x i8] c"lf_newline\00", align 1

; Function Attrs: nounwind sspstrong uwtable
define internal void @rb_transcoding_close(ptr noundef %0) #0 {
  %2 = alloca ptr, align 8
  %3 = alloca ptr, align 8
  store ptr %0, ptr %2, align 8, !tbaa !66
  call void @llvm.lifetime.start.p0(i64 8, ptr %3) #25
  %4 = load ptr, ptr %2, align 8, !tbaa !66
  %5 = getelementptr inbounds nuw %struct.rb_transcoding, ptr %4, i32 0, i32 0
  %6 = load ptr, ptr %5, align 8, !tbaa !51
  store ptr %6, ptr %3, align 8, !tbaa !14
  %7 = load ptr, ptr %3, align 8, !tbaa !14
  %8 = getelementptr inbounds nuw %struct.rb_transcoder, ptr %7, i32 0, i32 14
  %9 = load ptr, ptr %8, align 8, !tbaa !89
  %10 = icmp ne ptr %9, null
  br i1 %10, label %11, label %32

11:                                               ; preds = %1
  %12 = load ptr, ptr %3, align 8, !tbaa !14
  %13 = getelementptr inbounds nuw %struct.rb_transcoder, ptr %12, i32 0, i32 14
  %14 = load ptr, ptr %13, align 8, !tbaa !89
  %15 = load ptr, ptr %2, align 8, !tbaa !66
  %16 = getelementptr inbounds nuw %struct.rb_transcoding, ptr %15, i32 0, i32 0
  %17 = load ptr, ptr %16, align 8, !tbaa !51
  %18 = getelementptr inbounds nuw %struct.rb_transcoder, ptr %17, i32 0, i32 12
  %19 = load i64, ptr %18, align 8, !tbaa !90
  %20 = icmp ule i64 %19, 8
  br i1 %20, label %21, label %25

21:                                               ; preds = %11
  %22 = load ptr, ptr %2, align 8, !tbaa !66
  %23 = getelementptr inbounds nuw %struct.rb_transcoding, ptr %22, i32 0, i32 13
  %24 = getelementptr inbounds [8 x i8], ptr %23, i64 0, i64 0
  br label %29

25:                                               ; preds = %11
  %26 = load ptr, ptr %2, align 8, !tbaa !66
  %27 = getelementptr inbounds nuw %struct.rb_transcoding, ptr %26, i32 0, i32 13
  %28 = load ptr, ptr %27, align 8, !tbaa !41
  br label %29

29:                                               ; preds = %25, %21
  %30 = phi ptr [ %24, %21 ], [ %28, %25 ]
  %31 = call i32 %14(ptr noundef %30)
  br label %32

32:                                               ; preds = %29, %1
  %33 = load ptr, ptr %3, align 8, !tbaa !14
  %34 = getelementptr inbounds nuw %struct.rb_transcoder, ptr %33, i32 0, i32 12
  %35 = load i64, ptr %34, align 8, !tbaa !90
  %36 = icmp ult i64 8, %35
  br i1 %36, label %37, label %41

37:                                               ; preds = %32
  %38 = load ptr, ptr %2, align 8, !tbaa !66
  %39 = getelementptr inbounds nuw %struct.rb_transcoding, ptr %38, i32 0, i32 13
  %40 = load ptr, ptr %39, align 8, !tbaa !41
  call void @ruby_xfree(ptr noundef %40)
  br label %41

41:                                               ; preds = %37, %32
  %42 = load ptr, ptr %3, align 8, !tbaa !14
  %43 = getelementptr inbounds nuw %struct.rb_transcoder, ptr %42, i32 0, i32 9
  %44 = load i32, ptr %43, align 4, !tbaa !70
  %45 = icmp slt i32 8, %44
  br i1 %45, label %46, label %50

46:                                               ; preds = %41
  %47 = load ptr, ptr %2, align 8, !tbaa !66
  %48 = getelementptr inbounds nuw %struct.rb_transcoding, ptr %47, i32 0, i32 9
  %49 = load ptr, ptr %48, align 8, !tbaa !41
  call void @ruby_xfree(ptr noundef %49)
  br label %50

50:                                               ; preds = %46, %41
  %51 = load ptr, ptr %3, align 8, !tbaa !14
  %52 = getelementptr inbounds nuw %struct.rb_transcoder, ptr %51, i32 0, i32 10
  %53 = load i32, ptr %52, align 8, !tbaa !91
  %54 = icmp slt i32 8, %53
  br i1 %54, label %55, label %59

55:                                               ; preds = %50
  %56 = load ptr, ptr %2, align 8, !tbaa !66
  %57 = getelementptr inbounds nuw %struct.rb_transcoding, ptr %56, i32 0, i32 12
  %58 = load ptr, ptr %57, align 8, !tbaa !41
  call void @ruby_xfree(ptr noundef %58)
  br label %59

59:                                               ; preds = %55, %50
  %60 = load ptr, ptr %2, align 8, !tbaa !66
  call void @ruby_xfree(ptr noundef %60)
  call void @llvm.lifetime.end.p0(i64 8, ptr %3) #25
  ret void
}

; Function Attrs: nounwind sspstrong uwtable
define internal ptr @get_transcoder_entry(ptr noundef %0, ptr noundef %1) #0 {
  %3 = alloca ptr, align 8
  %4 = alloca ptr, align 8
  %5 = alloca ptr, align 8
  %6 = alloca i64, align 8
  %7 = alloca ptr, align 8
  %8 = alloca i32, align 4
  store ptr %0, ptr %4, align 8, !tbaa !21
  store ptr %1, ptr %5, align 8, !tbaa !21
  call void @llvm.lifetime.start.p0(i64 8, ptr %6) #25
  call void @llvm.lifetime.start.p0(i64 8, ptr %7) #25
  %9 = load ptr, ptr @transcoder_table, align 8, !tbaa !7
  %10 = load ptr, ptr %4, align 8, !tbaa !21
  %11 = ptrtoint ptr %10 to i64
  %12 = call i32 @rb_st_lookup(ptr noundef %9, i64 noundef %11, ptr noundef %6)
  %13 = icmp ne i32 %12, 0
  br i1 %13, label %15, label %14

14:                                               ; preds = %2
  store ptr null, ptr %3, align 8
  store i32 1, ptr %8, align 4
  br label %27

15:                                               ; preds = %2
  %16 = load i64, ptr %6, align 8, !tbaa !12
  %17 = inttoptr i64 %16 to ptr
  store ptr %17, ptr %7, align 8, !tbaa !7
  %18 = load ptr, ptr %7, align 8, !tbaa !7
  %19 = load ptr, ptr %5, align 8, !tbaa !21
  %20 = ptrtoint ptr %19 to i64
  %21 = call i32 @rb_st_lookup(ptr noundef %18, i64 noundef %20, ptr noundef %6)
  %22 = icmp ne i32 %21, 0
  br i1 %22, label %24, label %23

23:                                               ; preds = %15
  store ptr null, ptr %3, align 8
  store i32 1, ptr %8, align 4
  br label %27

24:                                               ; preds = %15
  %25 = load i64, ptr %6, align 8, !tbaa !12
  %26 = inttoptr i64 %25 to ptr
  store ptr %26, ptr %3, align 8
  store i32 1, ptr %8, align 4
  br label %27

27:                                               ; preds = %24, %23, %14
  call void @llvm.lifetime.end.p0(i64 8, ptr %7) #25
  call void @llvm.lifetime.end.p0(i64 8, ptr %6) #25
  %28 = load ptr, ptr %3, align 8
  ret ptr %28
}

; Function Attrs: nounwind sspstrong uwtable
define dso_local void @rb_econv_binmode(ptr noundef %0) #0 {
  %2 = alloca ptr, align 8
  %3 = alloca ptr, align 8
  %4 = alloca ptr, align 8
  %5 = alloca i32, align 4
  %6 = alloca i32, align 4
  %7 = alloca i32, align 4
  store ptr %0, ptr %2, align 8, !tbaa !30
  call void @llvm.lifetime.start.p0(i64 8, ptr %3) #25
  store ptr null, ptr %3, align 8, !tbaa !21
  %8 = load ptr, ptr %2, align 8, !tbaa !30
  %9 = getelementptr inbounds nuw %struct.rb_econv_t, ptr %8, i32 0, i32 0
  %10 = load i32, ptr %9, align 8, !tbaa !34
  %11 = and i32 %10, 32512
  switch i32 %11, label %16 [
    i32 256, label %12
    i32 4096, label %13
    i32 8192, label %14
    i32 16384, label %15
  ]

12:                                               ; preds = %1
  store ptr @.str.4, ptr %3, align 8, !tbaa !21
  br label %16

13:                                               ; preds = %1
  store ptr @.str.5, ptr %3, align 8, !tbaa !21
  br label %16

14:                                               ; preds = %1
  store ptr @.str.6, ptr %3, align 8, !tbaa !21
  br label %16

15:                                               ; preds = %1
  store ptr @.str.7, ptr %3, align 8, !tbaa !21
  br label %16

16:                                               ; preds = %1, %15, %14, %13, %12
  %17 = load ptr, ptr %3, align 8, !tbaa !21
  %18 = icmp ne ptr %17, null
  br i1 %18, label %19, label %84

19:                                               ; preds = %16
  call void @llvm.lifetime.start.p0(i64 8, ptr %4) #25
  %20 = load ptr, ptr %3, align 8, !tbaa !21
  %21 = call ptr @get_transcoder_entry(ptr noundef @.str.2, ptr noundef %20)
  %22 = getelementptr inbounds nuw %struct.transcoder_entry_t, ptr %21, i32 0, i32 3
  %23 = load ptr, ptr %22, align 8, !tbaa !24
  store ptr %23, ptr %4, align 8, !tbaa !14
  call void @llvm.lifetime.start.p0(i64 4, ptr %5) #25
  %24 = load ptr, ptr %2, align 8, !tbaa !30
  %25 = getelementptr inbounds nuw %struct.rb_econv_t, ptr %24, i32 0, i32 14
  %26 = load i32, ptr %25, align 8, !tbaa !47
  store i32 %26, ptr %5, align 4, !tbaa !29
  call void @llvm.lifetime.start.p0(i64 4, ptr %6) #25
  call void @llvm.lifetime.start.p0(i64 4, ptr %7) #25
  store i32 0, ptr %7, align 4, !tbaa !29
  store i32 0, ptr %6, align 4, !tbaa !29
  br label %27

27:                                               ; preds = %80, %19
  %28 = load i32, ptr %6, align 4, !tbaa !29
  %29 = load i32, ptr %5, align 4, !tbaa !29
  %30 = icmp slt i32 %28, %29
  br i1 %30, label %31, label %83

31:                                               ; preds = %27
  %32 = load ptr, ptr %4, align 8, !tbaa !14
  %33 = load ptr, ptr %2, align 8, !tbaa !30
  %34 = getelementptr inbounds nuw %struct.rb_econv_t, ptr %33, i32 0, i32 11
  %35 = load ptr, ptr %34, align 8, !tbaa !48
  %36 = load i32, ptr %6, align 4, !tbaa !29
  %37 = sext i32 %36 to i64
  %38 = getelementptr %struct.rb_econv_elem_t, ptr %35, i64 %37
  %39 = getelementptr inbounds nuw %struct.rb_econv_elem_t, ptr %38, i32 0, i32 0
  %40 = load ptr, ptr %39, align 8, !tbaa !49
  %41 = getelementptr inbounds nuw %struct.rb_transcoding, ptr %40, i32 0, i32 0
  %42 = load ptr, ptr %41, align 8, !tbaa !51
  %43 = icmp eq ptr %32, %42
  br i1 %43, label %44, label %65

44:                                               ; preds = %31
  %45 = load ptr, ptr %2, align 8, !tbaa !30
  %46 = getelementptr inbounds nuw %struct.rb_econv_t, ptr %45, i32 0, i32 11
  %47 = load ptr, ptr %46, align 8, !tbaa !48
  %48 = load i32, ptr %6, align 4, !tbaa !29
  %49 = sext i32 %48 to i64
  %50 = getelementptr %struct.rb_econv_elem_t, ptr %47, i64 %49
  %51 = getelementptr inbounds nuw %struct.rb_econv_elem_t, ptr %50, i32 0, i32 0
  %52 = load ptr, ptr %51, align 8, !tbaa !49
  call void @rb_transcoding_close(ptr noundef %52)
  %53 = load ptr, ptr %2, align 8, !tbaa !30
  %54 = getelementptr inbounds nuw %struct.rb_econv_t, ptr %53, i32 0, i32 11
  %55 = load ptr, ptr %54, align 8, !tbaa !48
  %56 = load i32, ptr %6, align 4, !tbaa !29
  %57 = sext i32 %56 to i64
  %58 = getelementptr %struct.rb_econv_elem_t, ptr %55, i64 %57
  %59 = getelementptr inbounds nuw %struct.rb_econv_elem_t, ptr %58, i32 0, i32 1
  %60 = load ptr, ptr %59, align 8, !tbaa !56
  call void @ruby_xfree(ptr noundef %60)
  %61 = load ptr, ptr %2, align 8, !tbaa !30
  %62 = getelementptr inbounds nuw %struct.rb_econv_t, ptr %61, i32 0, i32 14
  %63 = load i32, ptr %62, align 8, !tbaa !47
  %64 = add i32 %63, -1
  store i32 %64, ptr %62, align 8, !tbaa !47
  br label %79

65:                                               ; preds = %31
  %66 = load ptr, ptr %2, align 8, !tbaa !30
  %67 = getelementptr inbounds nuw %struct.rb_econv_t, ptr %66, i32 0, i32 11
  %68 = load ptr, ptr %67, align 8, !tbaa !48
  %69 = load i32, ptr %7, align 4, !tbaa !29
  %70 = add i32 %69, 1
  store i32 %70, ptr %7, align 4, !tbaa !29
  %71 = sext i32 %69 to i64
  %72 = getelementptr %struct.rb_econv_elem_t, ptr %68, i64 %71
  %73 = load ptr, ptr %2, align 8, !tbaa !30
  %74 = getelementptr inbounds nuw %struct.rb_econv_t, ptr %73, i32 0, i32 11
  %75 = load ptr, ptr %74, align 8, !tbaa !48
  %76 = load i32, ptr %6, align 4, !tbaa !29
  %77 = sext i32 %76 to i64
  %78 = getelementptr %struct.rb_econv_elem_t, ptr %75, i64 %77
  call void @llvm.memcpy.p0.p0.i64(ptr align 8 %72, ptr align 8 %78, i64 48, i1 false), !tbaa.struct !112
  br label %79

79:                                               ; preds = %65, %44
  br label %80

80:                                               ; preds = %79
  %81 = load i32, ptr %6, align 4, !tbaa !29
  %82 = add i32 %81, 1
  store i32 %82, ptr %6, align 4, !tbaa !29
  br label %27, !llvm.loop !113

83:                                               ; preds = %27
  call void @llvm.lifetime.end.p0(i64 4, ptr %7) #25
  call void @llvm.lifetime.end.p0(i64 4, ptr %6) #25
  call void @llvm.lifetime.end.p0(i64 4, ptr %5) #25
  call void @llvm.lifetime.end.p0(i64 8, ptr %4) #25
  br label %84

84:                                               ; preds = %83, %16
  %85 = load ptr, ptr %2, align 8, !tbaa !30
  %86 = getelementptr inbounds nuw %struct.rb_econv_t, ptr %85, i32 0, i32 0
  %87 = load i32, ptr %86, align 8, !tbaa !34
  %88 = and i32 %87, -32513
  store i32 %88, ptr %86, align 8, !tbaa !34
  call void @llvm.lifetime.end.p0(i64 8, ptr %3) #25
  ret void
}