; Function Attrs: nounwind sspstrong uwtable
define dso_local void @rb_econv_binmode(ptr noundef captures(none) %0) local_unnamed_addr #0 {
  %2 = alloca i64, align 8
  %3 = load i32, ptr %0, align 8, !tbaa !55
  %4 = and i32 %3, 32512
  switch i32 %4, label %.loopexit [
    i32 256, label %get_transcoder_entry.exit
    i32 4096, label %5
    i32 8192, label %6
    i32 16384, label %7
  ]

5:                                                ; preds = %1
  br label %get_transcoder_entry.exit

6:                                                ; preds = %1
  br label %get_transcoder_entry.exit

7:                                                ; preds = %1
  br label %get_transcoder_entry.exit

get_transcoder_entry.exit:                        ; preds = %1, %7, %6, %5
  %.020.ph = phi ptr [ @.str.5, %5 ], [ @.str.6, %6 ], [ @.str.7, %7 ], [ @.str.4, %1 ]
  call void @llvm.lifetime.start.p0(i64 8, ptr nonnull %2) #22
  %8 = load ptr, ptr @transcoder_table, align 8, !tbaa !7
  %9 = call i32 @rb_st_lookup(ptr noundef %8, i64 noundef ptrtoint (ptr @.str.2 to i64), ptr noundef nonnull %2) #22
  %.not.i = icmp ne i32 %9, 0
  call void @llvm.assume(i1 %.not.i)
  %10 = load i64, ptr %2, align 8, !tbaa !22
  %11 = inttoptr i64 %10 to ptr
  %12 = ptrtoint ptr %.020.ph to i64
  %13 = call i32 @rb_st_lookup(ptr noundef %11, i64 noundef %12, ptr noundef nonnull %2) #22
  %.not4.i = icmp ne i32 %13, 0
  call void @llvm.assume(i1 %.not4.i)
  %14 = load i64, ptr %2, align 8, !tbaa !22
  %15 = inttoptr i64 %14 to ptr
  call void @llvm.lifetime.end.p0(i64 8, ptr nonnull %2) #22
  %16 = getelementptr inbounds nuw i8, ptr %15, i64 24
  %17 = load ptr, ptr %16, align 8, !tbaa !19
  %18 = getelementptr inbounds nuw i8, ptr %0, i64 96
  %19 = load i32, ptr %18, align 8, !tbaa !46
  %20 = icmp sgt i32 %19, 0
  br i1 %20, label %.lr.ph, label %.loopexit

.lr.ph:                                           ; preds = %get_transcoder_entry.exit
  %21 = getelementptr inbounds nuw i8, ptr %0, i64 80
  %wide.trip.count = zext nneg i32 %19 to i64
  br label %22

22:                                               ; preds = %.lr.ph, %71
  %indvars.iv = phi i64 [ 0, %.lr.ph ], [ %indvars.iv.next, %71 ]
  %.026 = phi i32 [ 0, %.lr.ph ], [ %.1, %71 ]
  %23 = load ptr, ptr %21, align 8, !tbaa !47
  %24 = getelementptr %struct.rb_econv_elem_t, ptr %23, i64 %indvars.iv
  %25 = load ptr, ptr %24, align 8, !tbaa !63
  %26 = load ptr, ptr %25, align 8, !tbaa !65
  %27 = icmp eq ptr %17, %26
  br i1 %27, label %28, label %67

28:                                               ; preds = %22
  %29 = getelementptr inbounds nuw i8, ptr %26, i64 88
  %30 = load ptr, ptr %29, align 8, !tbaa !75
  %.not.i21 = icmp eq ptr %30, null
  br i1 %.not.i21, label %41, label %31

31:                                               ; preds = %28
  %32 = getelementptr inbounds nuw i8, ptr %26, i64 72
  %33 = load i64, ptr %32, align 8, !tbaa !76
  %34 = icmp ult i64 %33, 9
  %35 = getelementptr inbounds nuw i8, ptr %25, i64 88
  br i1 %34, label %38, label %36

36:                                               ; preds = %31
  %37 = load ptr, ptr %35, align 8, !tbaa !27
  br label %38

38:                                               ; preds = %36, %31
  %39 = phi ptr [ %37, %36 ], [ %35, %31 ]
  %40 = call i32 %30(ptr noundef %39) #22
  br label %41

41:                                               ; preds = %38, %28
  %42 = getelementptr inbounds nuw i8, ptr %26, i64 72
  %43 = load i64, ptr %42, align 8, !tbaa !76
  %44 = icmp ugt i64 %43, 8
  br i1 %44, label %45, label %48

45:                                               ; preds = %41
  %46 = getelementptr inbounds nuw i8, ptr %25, i64 88
  %47 = load ptr, ptr %46, align 8, !tbaa !27
  call void @ruby_xfree(ptr noundef %47) #22
  br label %48

48:                                               ; preds = %45, %41
  %49 = getelementptr inbounds nuw i8, ptr %26, i64 60
  %50 = load i32, ptr %49, align 4, !tbaa !77
  %51 = icmp sgt i32 %50, 8
  br i1 %51, label %52, label %55

52:                                               ; preds = %48
  %53 = getelementptr inbounds nuw i8, ptr %25, i64 56
  %54 = load ptr, ptr %53, align 8, !tbaa !27
  call void @ruby_xfree(ptr noundef %54) #22
  br label %55

55:                                               ; preds = %52, %48
  %56 = getelementptr inbounds nuw i8, ptr %26, i64 64
  %57 = load i32, ptr %56, align 8, !tbaa !78
  %58 = icmp sgt i32 %57, 8
  br i1 %58, label %59, label %rb_transcoding_close.exit

59:                                               ; preds = %55
  %60 = getelementptr inbounds nuw i8, ptr %25, i64 80
  %61 = load ptr, ptr %60, align 8, !tbaa !27
  call void @ruby_xfree(ptr noundef %61) #22
  br label %rb_transcoding_close.exit

rb_transcoding_close.exit:                        ; preds = %55, %59
  call void @ruby_xfree(ptr noundef nonnull %25) #22
  %62 = load ptr, ptr %21, align 8, !tbaa !47
  %63 = getelementptr %struct.rb_econv_elem_t, ptr %62, i64 %indvars.iv, i32 1
  %64 = load ptr, ptr %63, align 8, !tbaa !79
  call void @ruby_xfree(ptr noundef %64) #22
  %65 = load i32, ptr %18, align 8, !tbaa !46
  %66 = add i32 %65, -1
  store i32 %66, ptr %18, align 8, !tbaa !46
  br label %71

67:                                               ; preds = %22
  %68 = add i32 %.026, 1
  %69 = sext i32 %.026 to i64
  %70 = getelementptr %struct.rb_econv_elem_t, ptr %23, i64 %69
  call void @llvm.memcpy.p0.p0.i64(ptr noundef nonnull align 8 dereferenceable(48) %70, ptr noundef nonnull align 8 dereferenceable(48) %24, i64 48, i1 false), !tbaa.struct !143
  br label %71

71:                                               ; preds = %rb_transcoding_close.exit, %67
  %.1 = phi i32 [ %.026, %rb_transcoding_close.exit ], [ %68, %67 ]
  %indvars.iv.next = add nuw nsw i64 %indvars.iv, 1
  %exitcond.not = icmp eq i64 %indvars.iv.next, %wide.trip.count
  br i1 %exitcond.not, label %.loopexit, label %22, !llvm.loop !145

.loopexit:                                        ; preds = %71, %get_transcoder_entry.exit, %1
  %72 = load i32, ptr %0, align 8, !tbaa !55
  %73 = and i32 %72, -32513
  store i32 %73, ptr %0, align 8, !tbaa !55
  ret void
}